; Function Attrs: nounwind uwtable
define noundef ptr @PQconnectdb(ptr noundef %0) local_unnamed_addr #0 {
  %2 = tail call ptr @PQconnectStart(ptr noundef %0)
  %.not = icmp eq ptr %2, null
  br i1 %.not, label %8, label %3

3:                                                ; preds = %1
  %4 = getelementptr inbounds nuw i8, ptr %2, i64 416
  %5 = load i32, ptr %4, align 8
  %.not5 = icmp eq i32 %5, 1
  br i1 %.not5, label %8, label %6

6:                                                ; preds = %3
  %7 = tail call i32 @pqConnectDBComplete(ptr noundef nonnull %2)
  br label %8

8:                                                ; preds = %6, %3, %1
  ret ptr %2
}